; Function Attrs: mustprogress nofree norecurse nosync nounwind willreturn memory(none) uwtable
define dso_local noundef range(i32 355, 701) i32 @_ZN4llvm5RTLIB11getFPTOUINTENS_3EVTES1_(i16 %0, ptr nocapture readnone %1, i16 %2, ptr nocapture readnone %3) local_unnamed_addr #2 {
  switch i16 %0, label %_ZNK4llvm3EVTeqES0_.exit9 [
    i16 11, label %5
    i16 12, label %7
    i16 13, label %9
    i16 14, label %11
    i16 15, label %14
    i16 16, label %16
  ]

5:                                                ; preds = %4
  %switch.tableidx = add i16 %2, -7
  %6 = icmp ult i16 %switch.tableidx, 3
  %narrow220 = add nuw nsw i16 %2, 348
  %spec.select = select i1 %6, i16 %narrow220, i16 700
  br label %_ZNK4llvm3EVTeqES0_.exit9

7:                                                ; preds = %4
  %switch.tableidx198 = add i16 %2, -7
  %8 = icmp ult i16 %switch.tableidx198, 3
  %narrow219 = add nuw nsw i16 %2, 351
  %spec.select221 = select i1 %8, i16 %narrow219, i16 700
  br label %_ZNK4llvm3EVTeqES0_.exit9

9:                                                ; preds = %4
  %switch.tableidx202 = add i16 %2, -7
  %10 = icmp ult i16 %switch.tableidx202, 3
  %narrow218 = add nuw nsw i16 %2, 354
  %spec.select222 = select i1 %10, i16 %narrow218, i16 700
  br label %_ZNK4llvm3EVTeqES0_.exit9

11:                                               ; preds = %4
  %switch.tableidx206 = add i16 %2, -7
  %12 = icmp ult i16 %switch.tableidx206, 3
  %13 = or disjoint i16 %switch.tableidx206, 364
  %spec.select223 = select i1 %12, i16 %13, i16 700
  br label %_ZNK4llvm3EVTeqES0_.exit9

14:                                               ; preds = %4
  %switch.tableidx210 = add i16 %2, -7
  %15 = icmp ult i16 %switch.tableidx210, 3
  %narrow217 = add nuw nsw i16 %2, 360
  %spec.select224 = select i1 %15, i16 %narrow217, i16 700
  br label %_ZNK4llvm3EVTeqES0_.exit9

16:                                               ; preds = %4
  %switch.tableidx214 = add i16 %2, -7
  %17 = icmp ult i16 %switch.tableidx214, 3
  %narrow = add nuw nsw i16 %2, 363
  %spec.select225 = select i1 %17, i16 %narrow, i16 700
  br label %_ZNK4llvm3EVTeqES0_.exit9

_ZNK4llvm3EVTeqES0_.exit9:                        ; preds = %16, %14, %11, %9, %7, %5, %4
  %.0.shrunk = phi i16 [ 700, %4 ], [ %spec.select, %5 ], [ %spec.select221, %7 ], [ %spec.select222, %9 ], [ %spec.select223, %11 ], [ %spec.select224, %14 ], [ %spec.select225, %16 ]
  %.0 = zext i16 %.0.shrunk to i32
  ret i32 %.0
}